target datalayout = "e-m:e-p270:32:32-p271:32:32-p272:64:64-i64:64-i128:128-f80:128-n8:16:32:64-S128"
target triple = "x86_64-pc-linux-gnu"

%struct._GC_arrays = type { i64, i64, i64, ptr, i64, i64, i64, i64, i64, i64, i64, i64, i64, i64, ptr, ptr, ptr, ptr, ptr, ptr, ptr, ptr, i32, i32, i32, i64, i64, i64, i64, i64, ptr, ptr, ptr, i64, i64, i32, i64, i64, ptr, i64, %struct.dl_hashtbl_s, %struct.dl_hashtbl_s, %struct.fnlz_roots_s, i32, ptr, i64, i64, i32, i32, i64, i64, i64, ptr, [64 x ptr], [8 x i8], [64 x ptr], [129 x ptr], [129 x ptr], [129 x ptr], [129 x ptr], [2049 x i64], [129 x ptr], [4096 x i8], [4096 x i64], [4096 x i64], ptr, [2048 x %struct.roots], [512 x %struct.exclusion], [2048 x ptr] }
%struct.dl_hashtbl_s = type { ptr, i64, i32 }
%struct.fnlz_roots_s = type { ptr, ptr }
%struct.roots = type { ptr, ptr, ptr, i32 }
%struct.exclusion = type { ptr, ptr }
%struct.obj_kind = type { ptr, ptr, i64, i32, i32, i32, ptr }
%struct.bi = type { [1024 x ptr], ptr, ptr, i64, ptr }
%struct.hblkhdr = type { ptr, ptr, ptr, i8, i8, i16, i64, i64, ptr, i64, %union.anon }
%union.anon = type { i64, [256 x i8] }

@GC_all_interior_pointers = global i32 1, align 4
@GC_arrays = global %struct._GC_arrays zeroinitializer, align 8
@GC_non_gc_bytes = global i64 0, align 8

; Function Attrs: nounwind allocsize(0) uwtable
define noalias ptr @GC_generic_or_special_malloc(i64 noundef %0, i32 noundef %1) #3 {
  %3 = alloca ptr, align 8
  %4 = alloca i64, align 8
  %5 = alloca i32, align 4
  store i64 %0, ptr %4, align 8
  store i32 %1, ptr %5, align 4
  %6 = load i32, ptr %5, align 4
  switch i32 %6, label %15 [
    i32 0, label %7
    i32 1, label %7
    i32 2, label %11
    i32 3, label %11
  ]

7:                                                ; preds = %2, %2
  %8 = load i64, ptr %4, align 8
  %9 = load i32, ptr %5, align 4
  %10 = call noalias ptr @GC_malloc_kind(i64 noundef %8, i32 noundef %9) #22
  store ptr %10, ptr %3, align 8
  br label %19

11:                                               ; preds = %2, %2
  %12 = load i64, ptr %4, align 8
  %13 = load i32, ptr %5, align 4
  %14 = call noalias ptr @GC_generic_malloc_uncollectable(i64 noundef %12, i32 noundef %13) #22
  store ptr %14, ptr %3, align 8
  br label %19

15:                                               ; preds = %2
  %16 = load i64, ptr %4, align 8
  %17 = load i32, ptr %5, align 4
  %18 = call ptr @GC_generic_malloc_aligned(i64 noundef %16, i32 noundef %17, i32 noundef 0, i64 noundef 0)
  store ptr %18, ptr %3, align 8
  br label %19

19:                                               ; preds = %15, %11, %7
  %20 = load ptr, ptr %3, align 8
  ret ptr %20
}

; Function Attrs: nounwind uwtable
define internal ptr @GC_find_header(ptr noundef %0) #0 {
  %2 = alloca ptr, align 8
  %3 = alloca ptr, align 8
  %4 = alloca ptr, align 8
  %5 = alloca ptr, align 8
  %6 = alloca i64, align 8
  %7 = alloca ptr, align 8
  store ptr %0, ptr %2, align 8
  br label %8

8:                                                ; preds = %1
  br label %9

9:                                                ; preds = %8
  br label %10

10:                                               ; preds = %9
  %11 = load ptr, ptr %2, align 8
  %12 = ptrtoint ptr %11 to i64
  %13 = lshr i64 %12, 22
  store i64 %13, ptr %6, align 8
  %14 = load i64, ptr %6, align 8
  %15 = and i64 %14, 2047
  %16 = getelementptr inbounds %struct._GC_arrays, ptr @GC_arrays, i32 0, i32 68
  %17 = getelementptr inbounds [2048 x ptr], ptr %16, i64 0, i64 %15
  %18 = load ptr, ptr %17, align 8
  store ptr %18, ptr %7, align 8
  br label %19

19:                                               ; preds = %32, %10
  %20 = load ptr, ptr %7, align 8
  %21 = getelementptr inbounds %struct.bi, ptr %20, i32 0, i32 3
  %22 = load i64, ptr %21, align 8
  %23 = load i64, ptr %6, align 8
  %24 = icmp ne i64 %22, %23
  br i1 %24, label %25, label %30

25:                                               ; preds = %19
  %26 = load ptr, ptr %7, align 8
  %27 = getelementptr inbounds %struct._GC_arrays, ptr @GC_arrays, i32 0, i32 30
  %28 = load ptr, ptr %27, align 8
  %29 = icmp ne ptr %26, %28
  br label %30

30:                                               ; preds = %25, %19
  %31 = phi i1 [ false, %19 ], [ %29, %25 ]
  br i1 %31, label %32, label %36

32:                                               ; preds = %30
  %33 = load ptr, ptr %7, align 8
  %34 = getelementptr inbounds %struct.bi, ptr %33, i32 0, i32 4
  %35 = load ptr, ptr %34, align 8
  store ptr %35, ptr %7, align 8
  br label %19, !llvm.loop !9

36:                                               ; preds = %30
  %37 = load ptr, ptr %7, align 8
  store ptr %37, ptr %5, align 8
  br label %38

38:                                               ; preds = %36
  %39 = load ptr, ptr %5, align 8
  %40 = getelementptr inbounds %struct.bi, ptr %39, i32 0, i32 0
  %41 = load ptr, ptr %2, align 8
  %42 = ptrtoint ptr %41 to i64
  %43 = lshr i64 %42, 12
  %44 = and i64 %43, 1023
  %45 = getelementptr inbounds [1024 x ptr], ptr %40, i64 0, i64 %44
  store ptr %45, ptr %4, align 8
  br label %46

46:                                               ; preds = %38
  %47 = load ptr, ptr %4, align 8
  %48 = load ptr, ptr %47, align 8
  store ptr %48, ptr %3, align 8
  br label %49

49:                                               ; preds = %46
  %50 = load ptr, ptr %3, align 8
  ret ptr %50
}

; Function Attrs: nounwind allocsize(0) uwtable
define noalias ptr @GC_malloc(i64 noundef %0) #3 {
  %2 = alloca i64, align 8
  store i64 %0, ptr %2, align 8
  %3 = load i64, ptr %2, align 8
  %4 = call noalias ptr @GC_malloc_kind(i64 noundef %3, i32 noundef 1) #22
  ret ptr %4
}

; Function Attrs: nounwind allocsize(1) uwtable
define ptr @GC_realloc(ptr noundef %0, i64 noundef %1) #8 {
  %3 = alloca ptr, align 8
  %4 = alloca ptr, align 8
  %5 = alloca i64, align 8
  %6 = alloca ptr, align 8
  %7 = alloca ptr, align 8
  %8 = alloca ptr, align 8
  %9 = alloca i64, align 8
  %10 = alloca i64, align 8
  %11 = alloca i64, align 8
  %12 = alloca i32, align 4
  %13 = alloca ptr, align 8
  %14 = alloca i64, align 8
  %15 = alloca i64, align 8
  %16 = alloca i64, align 8
  store ptr %0, ptr %4, align 8
  store i64 %1, ptr %5, align 8
  %17 = load ptr, ptr %4, align 8
  %18 = ptrtoint ptr %17 to i64
  store i64 %18, ptr %9, align 8
  %19 = load ptr, ptr %4, align 8
  %20 = icmp eq ptr null, %19
  br i1 %20, label %21, label %24

21:                                               ; preds = %2
  %22 = load i64, ptr %5, align 8
  %23 = call noalias ptr @GC_malloc(i64 noundef %22) #22
  store ptr %23, ptr %3, align 8
  br label %158

24:                                               ; preds = %2
  %25 = load i64, ptr %5, align 8
  %26 = icmp eq i64 0, %25
  br i1 %26, label %27, label %29

27:                                               ; preds = %24
  %28 = load ptr, ptr %4, align 8
  call void @GC_free(ptr noundef %28)
  store ptr null, ptr %3, align 8
  br label %158

29:                                               ; preds = %24
  %30 = load ptr, ptr %4, align 8
  %31 = ptrtoint ptr %30 to i64
  %32 = and i64 %31, -4096
  %33 = inttoptr i64 %32 to ptr
  store ptr %33, ptr %6, align 8
  %34 = load ptr, ptr %6, align 8
  %35 = call ptr @GC_find_header(ptr noundef %34)
  store ptr %35, ptr %7, align 8
  %36 = load ptr, ptr %7, align 8
  %37 = getelementptr inbounds %struct.hblkhdr, ptr %36, i32 0, i32 6
  %38 = load i64, ptr %37, align 8
  store i64 %38, ptr %10, align 8
  %39 = load ptr, ptr %7, align 8
  %40 = getelementptr inbounds %struct.hblkhdr, ptr %39, i32 0, i32 3
  %41 = load i8, ptr %40, align 8
  %42 = zext i8 %41 to i32
  store i32 %42, ptr %12, align 4
  %43 = load i64, ptr %10, align 8
  store i64 %43, ptr %11, align 8
  %44 = load i64, ptr %10, align 8
  %45 = icmp ugt i64 %44, 2048
  br i1 %45, label %46, label %101

46:                                               ; preds = %29
  %47 = load i32, ptr %12, align 4
  %48 = sext i32 %47 to i64
  %49 = getelementptr inbounds [24 x %struct.obj_kind], ptr @GC_obj_kinds, i64 0, i64 %48
  store ptr %49, ptr %13, align 8
  %50 = load ptr, ptr %13, align 8
  %51 = getelementptr inbounds %struct.obj_kind, ptr %50, i32 0, i32 2
  %52 = load i64, ptr %51, align 8
  store i64 %52, ptr %14, align 8
  %53 = load i64, ptr %10, align 8
  %54 = add i64 %53, 4096
  %55 = sub i64 %54, 1
  %56 = and i64 %55, -4096
  store i64 %56, ptr %10, align 8
  %57 = load i32, ptr @GC_all_interior_pointers, align 4
  %58 = sext i32 %57 to i64
  %59 = icmp ne i64 %58, 0
  br i1 %59, label %60, label %73

60:                                               ; preds = %46
  %61 = load ptr, ptr %7, align 8
  %62 = getelementptr inbounds %struct.hblkhdr, ptr %61, i32 0, i32 4
  %63 = load i8, ptr %62, align 1
  %64 = zext i8 %63 to i32
  %65 = and i32 %64, 1
  %66 = icmp ne i32 %65, 0
  br i1 %66, label %67, label %73

67:                                               ; preds = %60
  %68 = load i32, ptr %12, align 4
  %69 = icmp eq i32 %68, 1
  br i1 %69, label %70, label %73

70:                                               ; preds = %67
  %71 = load i64, ptr %14, align 8
  %72 = add i64 %71, 8
  store i64 %72, ptr %14, align 8
  br label %73

73:                                               ; preds = %70, %67, %60, %46
  %74 = load ptr, ptr %13, align 8
  %75 = getelementptr inbounds %struct.obj_kind, ptr %74, i32 0, i32 3
  %76 = load i32, ptr %75, align 8
  %77 = icmp ne i32 %76, 0
  br i1 %77, label %78, label %82

78:                                               ; preds = %73
  %79 = load i64, ptr %10, align 8
  %80 = load i64, ptr %14, align 8
  %81 = add i64 %80, %79
  store i64 %81, ptr %14, align 8
  br label %82

82:                                               ; preds = %78, %73
  %83 = load ptr, ptr %7, align 8
  %84 = getelementptr inbounds %struct.hblkhdr, ptr %83, i32 0, i32 6
  %85 = load i64, ptr %10, align 8
  store i64 %85, ptr %15, align 8
  %86 = load i64, ptr %15, align 8
  store atomic volatile i64 %86, ptr %84 monotonic, align 8
  %87 = load ptr, ptr %7, align 8
  %88 = getelementptr inbounds %struct.hblkhdr, ptr %87, i32 0, i32 7
  %89 = load i64, ptr %14, align 8
  store i64 %89, ptr %16, align 8
  %90 = load i64, ptr %16, align 8
  store atomic volatile i64 %90, ptr %88 monotonic, align 8
  %91 = load i32, ptr %12, align 4
  %92 = and i32 %91, -2
  %93 = icmp eq i32 %92, 2
  br i1 %93, label %94, label %100

94:                                               ; preds = %82
  %95 = load i64, ptr %10, align 8
  %96 = load i64, ptr %11, align 8
  %97 = sub i64 %95, %96
  %98 = load i64, ptr @GC_non_gc_bytes, align 8
  %99 = add i64 %98, %97
  store i64 %99, ptr @GC_non_gc_bytes, align 8
  br label %100

100:                                              ; preds = %94, %82
  br label %101

101:                                              ; preds = %100, %29
  %102 = load i64, ptr %5, align 8
  %103 = load i32, ptr @GC_all_interior_pointers, align 4
  %104 = sext i32 %103 to i64
  %105 = sub i64 -1, %104
  %106 = icmp ult i64 %102, %105
  %107 = zext i1 %106 to i32
  %108 = sext i32 %107 to i64
  %109 = icmp ne i64 %108, 0
  br i1 %109, label %110, label %115

110:                                              ; preds = %101
  %111 = load i64, ptr %5, align 8
  %112 = load i32, ptr @GC_all_interior_pointers, align 4
  %113 = sext i32 %112 to i64
  %114 = add i64 %111, %113
  br label %116

115:                                              ; preds = %101
  br label %116

116:                                              ; preds = %115, %110
  %117 = phi i64 [ %114, %110 ], [ -1, %115 ]
  %118 = load i64, ptr %10, align 8
  %119 = icmp ule i64 %117, %118
  br i1 %119, label %120, label %141

120:                                              ; preds = %116
  %121 = load i64, ptr %5, align 8
  %122 = load i64, ptr %10, align 8
  %123 = lshr i64 %122, 1
  %124 = icmp uge i64 %121, %123
  br i1 %124, label %125, label %139

125:                                              ; preds = %120
  %126 = load i64, ptr %11, align 8
  %127 = load i64, ptr %5, align 8
  %128 = icmp ugt i64 %126, %127
  br i1 %128, label %129, label %137

129:                                              ; preds = %125
  %130 = load i64, ptr %9, align 8
  %131 = inttoptr i64 %130 to ptr
  %132 = load i64, ptr %5, align 8
  %133 = getelementptr inbounds i8, ptr %131, i64 %132
  %134 = load i64, ptr %11, align 8
  %135 = load i64, ptr %5, align 8
  %136 = sub i64 %134, %135
  call void @llvm.memset.p0.i64(ptr align 1 %133, i8 0, i64 %136, i1 false)
  br label %137

137:                                              ; preds = %129, %125
  %138 = load ptr, ptr %4, align 8
  store ptr %138, ptr %3, align 8
  br label %158

139:                                              ; preds = %120
  %140 = load i64, ptr %5, align 8
  store i64 %140, ptr %10, align 8
  br label %141

141:                                              ; preds = %139, %116
  %142 = load i64, ptr %5, align 8
  %143 = load i32, ptr %12, align 4
  %144 = call noalias ptr @GC_generic_or_special_malloc(i64 noundef %142, i32 noundef %143) #22
  store ptr %144, ptr %8, align 8
  %145 = load ptr, ptr %8, align 8
  %146 = icmp ne ptr %145, null
  %147 = zext i1 %146 to i32
  %148 = sext i32 %147 to i64
  %149 = icmp ne i64 %148, 0
  br i1 %149, label %150, label %156

150:                                              ; preds = %141
  %151 = load ptr, ptr %8, align 8
  %152 = load ptr, ptr %4, align 8
  %153 = load i64, ptr %10, align 8
  call void @llvm.memcpy.p0.p0.i64(ptr align 1 %151, ptr align 1 %152, i64 %153, i1 false)
  %154 = load i64, ptr %9, align 8
  %155 = inttoptr i64 %154 to ptr
  call void @GC_free(ptr noundef %155)
  br label %156

156:                                              ; preds = %150, %141
  %157 = load ptr, ptr %8, align 8
  store ptr %157, ptr %3, align 8
  br label %158

158:                                              ; preds = %156, %137, %27, %21
  %159 = load ptr, ptr %3, align 8
  ret ptr %159
}