; Function Attrs: nounwind allocsize(1) uwtable
define ptr @GC_realloc(ptr noundef %0, i64 noundef %1) local_unnamed_addr #14 {
  %3 = ptrtoint ptr %0 to i64
  %4 = icmp eq ptr %0, null
  br i1 %4, label %5, label %7

5:                                                ; preds = %2
  %6 = tail call noalias ptr @GC_malloc_kind(i64 noundef %1, i32 noundef 1) #51
  br label %75

7:                                                ; preds = %2
  %8 = icmp eq i64 %1, 0
  br i1 %8, label %9, label %10

9:                                                ; preds = %7
  tail call void @GC_free(ptr noundef nonnull %0)
  br label %75

10:                                               ; preds = %7
  %11 = lshr i64 %3, 22
  %12 = and i64 %11, 2047
  %13 = getelementptr inbounds nuw [2048 x ptr], ptr getelementptr inbounds nuw (i8, ptr @GC_arrays, i64 166400), i64 0, i64 %12
  %14 = load ptr, ptr getelementptr inbounds nuw (i8, ptr @GC_arrays, i64 232), align 8
  br label %15

15:                                               ; preds = %15, %10
  %.0.in.i = phi ptr [ %13, %10 ], [ %21, %15 ]
  %.0.i = load ptr, ptr %.0.in.i, align 8
  %16 = getelementptr inbounds nuw i8, ptr %.0.i, i64 8208
  %17 = load i64, ptr %16, align 8
  %18 = icmp ne i64 %17, %11
  %19 = icmp ne ptr %.0.i, %14
  %20 = select i1 %18, i1 %19, i1 false
  %21 = getelementptr inbounds nuw i8, ptr %.0.i, i64 8216
  br i1 %20, label %15, label %GC_find_header.exit, !llvm.loop !15

GC_find_header.exit:                              ; preds = %15
  %22 = lshr i64 %3, 12
  %23 = and i64 %22, 1023
  %24 = getelementptr inbounds nuw [1024 x ptr], ptr %.0.i, i64 0, i64 %23
  %25 = load ptr, ptr %24, align 8
  %26 = getelementptr inbounds nuw i8, ptr %25, i64 32
  %27 = load i64, ptr %26, align 8
  %28 = getelementptr inbounds nuw i8, ptr %25, i64 24
  %29 = load i8, ptr %28, align 8
  %30 = zext i8 %29 to i32
  %31 = icmp ugt i64 %27, 2048
  %.pre = load i32, ptr @GC_all_interior_pointers, align 4
  br i1 %31, label %32, label %57

32:                                               ; preds = %GC_find_header.exit
  %33 = zext i8 %29 to i64
  %34 = getelementptr inbounds nuw [24 x %struct.obj_kind], ptr @GC_obj_kinds, i64 0, i64 %33
  %35 = getelementptr inbounds nuw i8, ptr %34, i64 16
  %36 = load i64, ptr %35, align 16
  %37 = add i64 %27, 4095
  %38 = and i64 %37, -4096
  %.not = icmp eq i32 %.pre, 0
  br i1 %.not, label %46, label %39

39:                                               ; preds = %32
  %40 = getelementptr inbounds nuw i8, ptr %25, i64 25
  %41 = load i8, ptr %40, align 1
  %42 = and i8 %41, 1
  %43 = icmp ne i8 %42, 0
  %44 = icmp eq i8 %29, 1
  %or.cond = select i1 %43, i1 %44, i1 false
  %45 = add i64 %36, 8
  %spec.select = select i1 %or.cond, i64 %45, i64 %36
  br label %46

46:                                               ; preds = %39, %32
  %.052 = phi i64 [ %36, %32 ], [ %spec.select, %39 ]
  %47 = getelementptr inbounds nuw i8, ptr %34, i64 24
  %48 = load i32, ptr %47, align 8
  %.not59 = icmp eq i32 %48, 0
  %49 = select i1 %.not59, i64 0, i64 %38
  %spec.select63 = add i64 %49, %.052
  store atomic volatile i64 %38, ptr %26 monotonic, align 8
  %50 = getelementptr inbounds nuw i8, ptr %25, i64 40
  store atomic volatile i64 %spec.select63, ptr %50 monotonic, align 8
  %51 = and i32 %30, 254
  %52 = icmp eq i32 %51, 2
  br i1 %52, label %53, label %57

53:                                               ; preds = %46
  %54 = sub i64 %38, %27
  %55 = load i64, ptr @GC_non_gc_bytes, align 8
  %56 = add i64 %54, %55
  store i64 %56, ptr @GC_non_gc_bytes, align 8
  br label %57

57:                                               ; preds = %46, %53, %GC_find_header.exit
  %.051 = phi i64 [ %38, %53 ], [ %38, %46 ], [ %27, %GC_find_header.exit ]
  %58 = sext i32 %.pre to i64
  %59 = tail call i64 @llvm.uadd.sat.i64(i64 %58, i64 %1)
  %.not60 = icmp ugt i64 %59, %.051
  br i1 %.not60, label %67, label %60

60:                                               ; preds = %57
  %61 = lshr i64 %.051, 1
  %.not61 = icmp ult i64 %1, %61
  br i1 %.not61, label %67, label %62

62:                                               ; preds = %60
  %63 = icmp ugt i64 %27, %1
  br i1 %63, label %64, label %75

64:                                               ; preds = %62
  %65 = getelementptr inbounds i8, ptr %0, i64 %1
  %66 = sub nuw i64 %27, %1
  tail call void @llvm.memset.p0.i64(ptr nonnull align 1 %65, i8 0, i64 %66, i1 false)
  br label %75

67:                                               ; preds = %60, %57
  %.1 = phi i64 [ %.051, %57 ], [ %1, %60 ]
  switch i8 %29, label %72 [
    i8 0, label %68
    i8 1, label %68
    i8 2, label %70
    i8 3, label %70
  ]

68:                                               ; preds = %67, %67
  %69 = tail call noalias ptr @GC_malloc_kind(i64 noundef %1, i32 noundef %30) #51
  br label %GC_generic_or_special_malloc.exit

70:                                               ; preds = %67, %67
  %71 = tail call noalias ptr @GC_generic_malloc_uncollectable(i64 noundef %1, i32 noundef %30) #51
  br label %GC_generic_or_special_malloc.exit

72:                                               ; preds = %67
  %73 = tail call fastcc ptr @GC_generic_malloc_aligned(i64 noundef %1, i32 noundef %30, i32 noundef 0, i64 noundef 0)
  br label %GC_generic_or_special_malloc.exit

GC_generic_or_special_malloc.exit:                ; preds = %68, %70, %72
  %.0.i64 = phi ptr [ %73, %72 ], [ %71, %70 ], [ %69, %68 ]
  %.not62 = icmp eq ptr %.0.i64, null
  br i1 %.not62, label %75, label %74

74:                                               ; preds = %GC_generic_or_special_malloc.exit
  tail call void @llvm.memcpy.p0.p0.i64(ptr nonnull align 1 %.0.i64, ptr nonnull align 1 %0, i64 %.1, i1 false)
  tail call void @GC_free(ptr noundef nonnull %0)
  br label %75

75:                                               ; preds = %GC_generic_or_special_malloc.exit, %74, %62, %64, %9, %5
  %.0 = phi ptr [ %6, %5 ], [ null, %9 ], [ %0, %64 ], [ %0, %62 ], [ %.0.i64, %74 ], [ null, %GC_generic_or_special_malloc.exit ]
  ret ptr %.0
}